; Function Attrs: mustprogress uwtable
define void @_ZN5faiss9IndexHNSW26init_level_0_from_knngraphEiPKfPKl(ptr noundef nonnull align 8 dereferenceable(5202) %0, i32 noundef %1, ptr noundef %2, ptr noundef %3) local_unnamed_addr #1 align 2 {
  %5 = alloca i32, align 4
  %6 = alloca ptr, align 8
  %7 = alloca ptr, align 8
  %8 = alloca i32, align 4
  store i32 %1, ptr %5, align 4, !tbaa !62
  store ptr %2, ptr %6, align 8, !tbaa !51
  store ptr %3, ptr %7, align 8, !tbaa !116
  call void @llvm.lifetime.start.p0(i64 4, ptr nonnull %8) #13
  %9 = getelementptr inbounds nuw i8, ptr %0, i64 40
  %10 = tail call noundef i32 @_ZNK5faiss4HNSW12nb_neighborsEi(ptr noundef nonnull align 8 dereferenceable(5142) %9, i32 noundef 0)
  store i32 %10, ptr %8, align 4, !tbaa !62
  call void (ptr, i32, ptr, ...) @__kmpc_fork_call(ptr nonnull @2, i32 5, ptr nonnull @_ZN5faiss9IndexHNSW26init_level_0_from_knngraphEiPKfPKl.omp_outlined, ptr nonnull %0, ptr nonnull %5, ptr nonnull %7, ptr nonnull %6, ptr nonnull %8)
  call void @llvm.lifetime.end.p0(i64 4, ptr nonnull %8) #13
  ret void
}